; Function Attrs: mustprogress uwtable
define noundef zeroext i1 @_ZN5draco17PointCloudEncoder19MarkParentAttributeEi(ptr nocapture noundef nonnull readonly align 8 dereferenceable(112) %0, i32 noundef %1) local_unnamed_addr #4 align 2 {
  %3 = icmp slt i32 %1, 0
  br i1 %3, label %31, label %4

4:                                                ; preds = %2
  %5 = getelementptr inbounds i8, ptr %0, i64 8
  %6 = load ptr, ptr %5, align 8
  %7 = getelementptr inbounds i8, ptr %6, i64 16
  %8 = getelementptr inbounds i8, ptr %6, i64 24
  %9 = load ptr, ptr %8, align 8
  %10 = load ptr, ptr %7, align 8
  %11 = ptrtoint ptr %9 to i64
  %12 = ptrtoint ptr %10 to i64
  %13 = sub i64 %11, %12
  %14 = lshr exact i64 %13, 3
  %15 = trunc i64 %14 to i32
  %.not = icmp sgt i32 %15, %1
  br i1 %.not, label %16, label %31

16:                                               ; preds = %4
  %17 = getelementptr inbounds i8, ptr %0, i64 40
  %18 = zext nneg i32 %1 to i64
  %19 = load ptr, ptr %17, align 8
  %20 = getelementptr inbounds i32, ptr %19, i64 %18
  %21 = load i32, ptr %20, align 4
  %22 = getelementptr inbounds i8, ptr %0, i64 16
  %23 = sext i32 %21 to i64
  %24 = load ptr, ptr %22, align 8
  %25 = getelementptr inbounds %"class.std::unique_ptr.36", ptr %24, i64 %23
  %26 = load ptr, ptr %25, align 8
  %27 = load ptr, ptr %26, align 8
  %28 = getelementptr inbounds i8, ptr %27, i64 64
  %29 = load ptr, ptr %28, align 8
  %30 = tail call noundef zeroext i1 %29(ptr noundef nonnull align 8 dereferenceable(72) %26, i32 noundef %1)
  br label %31

31:                                               ; preds = %16, %2, %4
  %.0 = phi i1 [ false, %4 ], [ false, %2 ], [ %30, %16 ]
  ret i1 %.0
}